target datalayout = "e-m:e-p270:32:32-p271:32:32-p272:64:64-i64:64-i128:128-f80:128-n8:16:32:64-S128"
target triple = "x86_64-pc-linux-gnu"

%struct.AVFilterContext = type { ptr, ptr, ptr, ptr, ptr, i32, ptr, ptr, i32, ptr, ptr, i32, i32, ptr, ptr, ptr, ptr, i32, ptr, i32, i32 }
%struct.EvalContext = type { ptr, ptr, i32, %struct.AVChannelLayout, ptr, i32, i32, i32, i64, ptr, ptr, i32, i64, i64, [6 x double], ptr }
%struct.AVChannelLayout = type { i32, i32, %union.anon.1, ptr }
%union.anon.1 = type { i64 }
%struct.AVFilter = type { ptr, ptr, ptr, ptr, ptr, i32 }

@.str.2 = private unnamed_addr constant [6 x i8] c"aeval\00", align 1
@.str.23 = private unnamed_addr constant [5 x i8] c"same\00", align 1
@.str.24 = private unnamed_addr constant [42 x i8] c"Invalid number of channels '%d' provided\0A\00", align 1

; Function Attrs: cold nounwind optsize uwtable
define internal i32 @init(ptr noundef %0) #0 {
  %2 = alloca i32, align 4
  %3 = alloca ptr, align 8
  %4 = alloca ptr, align 8
  %5 = alloca i32, align 4
  %6 = alloca i32, align 4
  store ptr %0, ptr %3, align 8, !tbaa !4
  call void @llvm.lifetime.start.p0(i64 8, ptr %4) #9
  %7 = load ptr, ptr %3, align 8, !tbaa !4
  %8 = getelementptr inbounds nuw %struct.AVFilterContext, ptr %7, i32 0, i32 9
  %9 = load ptr, ptr %8, align 8, !tbaa !9
  store ptr %9, ptr %4, align 8, !tbaa !22
  call void @llvm.lifetime.start.p0(i64 4, ptr %5) #9
  store i32 0, ptr %5, align 4, !tbaa !24
  %10 = load ptr, ptr %4, align 8, !tbaa !22
  %11 = getelementptr inbounds nuw %struct.EvalContext, ptr %10, i32 0, i32 4
  %12 = load ptr, ptr %11, align 8, !tbaa !25
  %13 = icmp ne ptr %12, null
  br i1 %13, label %14, label %56

14:                                               ; preds = %1
  %15 = load ptr, ptr %4, align 8, !tbaa !22
  %16 = getelementptr inbounds nuw %struct.EvalContext, ptr %15, i32 0, i32 4
  %17 = load ptr, ptr %16, align 8, !tbaa !25
  %18 = call i32 @strcmp(ptr noundef %17, ptr noundef @.str.23) #10
  %19 = icmp ne i32 %18, 0
  br i1 %19, label %31, label %20

20:                                               ; preds = %14
  %21 = load ptr, ptr %3, align 8, !tbaa !4
  %22 = getelementptr inbounds nuw %struct.AVFilterContext, ptr %21, i32 0, i32 1
  %23 = load ptr, ptr %22, align 8, !tbaa !30
  %24 = getelementptr inbounds nuw %struct.AVFilter, ptr %23, i32 0, i32 0
  %25 = load ptr, ptr %24, align 8, !tbaa !31
  %26 = call i32 @strcmp(ptr noundef %25, ptr noundef @.str.2) #10
  %27 = icmp ne i32 %26, 0
  br i1 %27, label %31, label %28

28:                                               ; preds = %20
  %29 = load ptr, ptr %4, align 8, !tbaa !22
  %30 = getelementptr inbounds nuw %struct.EvalContext, ptr %29, i32 0, i32 7
  store i32 1, ptr %30, align 8, !tbaa !33
  br label %55

31:                                               ; preds = %20, %14
  %32 = load ptr, ptr %4, align 8, !tbaa !22
  %33 = getelementptr inbounds nuw %struct.EvalContext, ptr %32, i32 0, i32 3
  %34 = load ptr, ptr %4, align 8, !tbaa !22
  %35 = getelementptr inbounds nuw %struct.EvalContext, ptr %34, i32 0, i32 4
  %36 = load ptr, ptr %35, align 8, !tbaa !25
  %37 = load ptr, ptr %3, align 8, !tbaa !4
  %38 = call i32 @ff_parse_channel_layout(ptr noundef %33, ptr noundef null, ptr noundef %36, ptr noundef %37)
  store i32 %38, ptr %5, align 4, !tbaa !24
  %39 = load i32, ptr %5, align 4, !tbaa !24
  %40 = icmp slt i32 %39, 0
  br i1 %40, label %41, label %43

41:                                               ; preds = %31
  %42 = load i32, ptr %5, align 4, !tbaa !24
  store i32 %42, ptr %2, align 4
  store i32 1, ptr %6, align 4
  br label %99

43:                                               ; preds = %31
  %44 = load ptr, ptr %3, align 8, !tbaa !4
  %45 = load ptr, ptr %4, align 8, !tbaa !22
  %46 = getelementptr inbounds nuw %struct.EvalContext, ptr %45, i32 0, i32 3
  %47 = getelementptr inbounds nuw %struct.AVChannelLayout, ptr %46, i32 0, i32 1
  %48 = load i32, ptr %47, align 4, !tbaa !34
  %49 = call i32 @parse_channel_expressions(ptr noundef %44, i32 noundef %48)
  store i32 %49, ptr %5, align 4, !tbaa !24
  %50 = load i32, ptr %5, align 4, !tbaa !24
  %51 = icmp slt i32 %50, 0
  br i1 %51, label %52, label %54

52:                                               ; preds = %43
  %53 = load i32, ptr %5, align 4, !tbaa !24
  store i32 %53, ptr %2, align 4
  store i32 1, ptr %6, align 4
  br label %99

54:                                               ; preds = %43
  br label %55

55:                                               ; preds = %54, %28
  br label %78

56:                                               ; preds = %1
  %57 = load ptr, ptr %3, align 8, !tbaa !4
  %58 = call i32 @parse_channel_expressions(ptr noundef %57, i32 noundef -1)
  store i32 %58, ptr %5, align 4, !tbaa !24
  %59 = icmp slt i32 %58, 0
  br i1 %59, label %60, label %62

60:                                               ; preds = %56
  %61 = load i32, ptr %5, align 4, !tbaa !24
  store i32 %61, ptr %2, align 4
  store i32 1, ptr %6, align 4
  br label %99

62:                                               ; preds = %56
  %63 = load ptr, ptr %4, align 8, !tbaa !22
  %64 = getelementptr inbounds nuw %struct.EvalContext, ptr %63, i32 0, i32 3
  %65 = load ptr, ptr %4, align 8, !tbaa !22
  %66 = getelementptr inbounds nuw %struct.EvalContext, ptr %65, i32 0, i32 5
  %67 = load i32, ptr %66, align 8, !tbaa !35
  call void @av_channel_layout_default(ptr noundef %64, i32 noundef %67)
  %68 = load ptr, ptr %4, align 8, !tbaa !22
  %69 = getelementptr inbounds nuw %struct.EvalContext, ptr %68, i32 0, i32 5
  %70 = load i32, ptr %69, align 8, !tbaa !35
  %71 = icmp sle i32 %70, 0
  br i1 %71, label %72, label %77

72:                                               ; preds = %62
  %73 = load ptr, ptr %3, align 8, !tbaa !4
  %74 = load ptr, ptr %4, align 8, !tbaa !22
  %75 = getelementptr inbounds nuw %struct.EvalContext, ptr %74, i32 0, i32 5
  %76 = load i32, ptr %75, align 8, !tbaa !35
  call void (ptr, i32, ptr, ...) @av_log(ptr noundef %73, i32 noundef 16, ptr noundef @.str.24, i32 noundef %76)
  store i32 -22, ptr %2, align 4
  store i32 1, ptr %6, align 4
  br label %99

77:                                               ; preds = %62
  br label %78

78:                                               ; preds = %77, %55
  %79 = load ptr, ptr %4, align 8, !tbaa !22
  %80 = getelementptr inbounds nuw %struct.EvalContext, ptr %79, i32 0, i32 1
  %81 = load ptr, ptr %80, align 8, !tbaa !36
  %82 = icmp ne ptr %81, null
  br i1 %82, label %83, label %95

83:                                               ; preds = %78
  %84 = load ptr, ptr %4, align 8, !tbaa !22
  %85 = getelementptr inbounds nuw %struct.EvalContext, ptr %84, i32 0, i32 2
  %86 = load ptr, ptr %4, align 8, !tbaa !22
  %87 = getelementptr inbounds nuw %struct.EvalContext, ptr %86, i32 0, i32 1
  %88 = load ptr, ptr %87, align 8, !tbaa !36
  %89 = load ptr, ptr %3, align 8, !tbaa !4
  %90 = call i32 @ff_parse_sample_rate(ptr noundef %85, ptr noundef %88, ptr noundef %89)
  store i32 %90, ptr %5, align 4, !tbaa !24
  %91 = icmp ne i32 %90, 0
  br i1 %91, label %92, label %94

92:                                               ; preds = %83
  %93 = load i32, ptr %5, align 4, !tbaa !24
  store i32 %93, ptr %2, align 4
  store i32 1, ptr %6, align 4
  br label %99

94:                                               ; preds = %83
  br label %95

95:                                               ; preds = %94, %78
  %96 = load ptr, ptr %4, align 8, !tbaa !22
  %97 = getelementptr inbounds nuw %struct.EvalContext, ptr %96, i32 0, i32 13
  store i64 0, ptr %97, align 8, !tbaa !37
  %98 = load i32, ptr %5, align 4, !tbaa !24
  store i32 %98, ptr %2, align 4
  store i32 1, ptr %6, align 4
  br label %99

99:                                               ; preds = %95, %92, %72, %60, %52, %41
  call void @llvm.lifetime.end.p0(i64 4, ptr %5) #9
  call void @llvm.lifetime.end.p0(i64 8, ptr %4) #9
  %100 = load i32, ptr %2, align 4
  ret i32 %100
}