; Function Attrs: cold nounwind optsize uwtable
define internal i32 @init(ptr noundef %0) #0 {
  %2 = getelementptr inbounds nuw i8, ptr %0, i64 72
  %3 = load ptr, ptr %2, align 8, !tbaa !4
  %4 = getelementptr inbounds nuw i8, ptr %3, i64 48
  %5 = load ptr, ptr %4, align 8, !tbaa !20
  %.not = icmp eq ptr %5, null
  br i1 %.not, label %24, label %6

6:                                                ; preds = %1
  %7 = tail call i32 @strcmp(ptr noundef nonnull dereferenceable(1) %5, ptr noundef nonnull dereferenceable(5) @.str.23) #10
  %.not39 = icmp eq i32 %7, 0
  br i1 %.not39, label %8, label %15

8:                                                ; preds = %6
  %9 = getelementptr inbounds nuw i8, ptr %0, i64 8
  %10 = load ptr, ptr %9, align 8, !tbaa !25
  %11 = load ptr, ptr %10, align 8, !tbaa !26
  %12 = tail call i32 @strcmp(ptr noundef nonnull dereferenceable(1) %11, ptr noundef nonnull dereferenceable(6) @.str.2) #10
  %.not40 = icmp eq i32 %12, 0
  br i1 %.not40, label %13, label %15

13:                                               ; preds = %8
  %14 = getelementptr inbounds nuw i8, ptr %3, i64 64
  store i32 1, ptr %14, align 8, !tbaa !28
  br label %34

15:                                               ; preds = %8, %6
  %16 = getelementptr inbounds nuw i8, ptr %3, i64 24
  %17 = tail call i32 @ff_parse_channel_layout(ptr noundef nonnull %16, ptr noundef null, ptr noundef nonnull %5, ptr noundef nonnull %0) #11
  %18 = icmp slt i32 %17, 0
  br i1 %18, label %42, label %19

19:                                               ; preds = %15
  %20 = getelementptr inbounds nuw i8, ptr %3, i64 28
  %21 = load i32, ptr %20, align 4, !tbaa !29
  %22 = tail call fastcc i32 @parse_channel_expressions(ptr noundef nonnull %0, i32 noundef %21)
  %23 = icmp slt i32 %22, 0
  br i1 %23, label %42, label %34

24:                                               ; preds = %1
  %25 = tail call fastcc i32 @parse_channel_expressions(ptr noundef nonnull %0, i32 noundef -1)
  %26 = icmp slt i32 %25, 0
  br i1 %26, label %42, label %27

27:                                               ; preds = %24
  %28 = getelementptr inbounds nuw i8, ptr %3, i64 24
  %29 = getelementptr inbounds nuw i8, ptr %3, i64 56
  %30 = load i32, ptr %29, align 8, !tbaa !30
  tail call void @av_channel_layout_default(ptr noundef nonnull %28, i32 noundef %30) #11
  %31 = load i32, ptr %29, align 8, !tbaa !30
  %32 = icmp slt i32 %31, 1
  br i1 %32, label %33, label %34

33:                                               ; preds = %27
  tail call void (ptr, i32, ptr, ...) @av_log(ptr noundef nonnull %0, i32 noundef 16, ptr noundef nonnull @.str.24, i32 noundef %31) #11
  br label %42

34:                                               ; preds = %27, %13, %19
  %.0 = phi i32 [ %22, %19 ], [ 0, %13 ], [ %25, %27 ]
  %35 = getelementptr inbounds nuw i8, ptr %3, i64 8
  %36 = load ptr, ptr %35, align 8, !tbaa !31
  %.not41 = icmp eq ptr %36, null
  br i1 %.not41, label %40, label %37

37:                                               ; preds = %34
  %38 = getelementptr inbounds nuw i8, ptr %3, i64 16
  %39 = tail call i32 @ff_parse_sample_rate(ptr noundef nonnull %38, ptr noundef nonnull %36, ptr noundef nonnull %0) #11
  %.not42 = icmp eq i32 %39, 0
  br i1 %.not42, label %40, label %42

40:                                               ; preds = %37, %34
  %.1 = phi i32 [ 0, %37 ], [ %.0, %34 ]
  %41 = getelementptr inbounds nuw i8, ptr %3, i64 112
  store i64 0, ptr %41, align 8, !tbaa !32
  br label %42

42:                                               ; preds = %37, %24, %19, %15, %40, %33
  %.028 = phi i32 [ %.1, %40 ], [ -22, %33 ], [ %17, %15 ], [ %22, %19 ], [ %25, %24 ], [ %39, %37 ]
  ret i32 %.028
}